; Function Attrs: mustprogress uwtable
define noalias noundef nonnull ptr @lean_uv_timer_reset(ptr noundef readonly captures(none) %0, ptr noundef readnone captures(none) %1) local_unnamed_addr #0 {
  %3 = getelementptr i8, ptr %0, i64 16
  %.val = load ptr, ptr %3, align 8, !tbaa !25
  %4 = getelementptr inbounds nuw i8, ptr %.val, i64 28
  %5 = load i32, ptr %4, align 4, !tbaa !33
  %6 = icmp eq i32 %5, 1
  br i1 %6, label %7, label %26

7:                                                ; preds = %2
  tail call void @_ZN4lean15event_loop_lockEPNS_12event_loop_tE(ptr noundef nonnull @_ZN4lean9global_evE)
  %8 = load ptr, ptr %.val, align 8, !tbaa !16
  %9 = tail call i32 @uv_timer_stop(ptr noundef %8)
  %10 = load ptr, ptr %.val, align 8, !tbaa !16
  %11 = getelementptr inbounds nuw i8, ptr %.val, i64 16
  %12 = load i64, ptr %11, align 8, !tbaa !34
  %13 = getelementptr inbounds nuw i8, ptr %.val, i64 24
  %14 = load i8, ptr %13, align 8, !tbaa !27, !range !28, !noundef !29
  %15 = trunc nuw i8 %14 to i1
  %spec.select = select i1 %15, i64 %12, i64 0
  %16 = tail call i32 @uv_timer_start(ptr noundef %10, ptr noundef nonnull @_ZN4lean18handle_timer_eventEP10uv_timer_s, i64 noundef %12, i64 noundef %spec.select)
  tail call void @_ZN4lean17event_loop_unlockEPNS_12event_loop_tE(ptr noundef nonnull @_ZN4lean9global_evE)
  %.not = icmp eq i32 %16, 0
  br i1 %.not, label %22, label %17

17:                                               ; preds = %7
  %18 = tail call ptr @lean_decode_uv_error(i32 noundef %16, ptr noundef null)
  tail call void @lean_inc_heartbeat()
  %19 = tail call noalias ptr @mi_malloc_small(i64 noundef 24) #8
  %20 = icmp eq ptr %19, null
  br i1 %20, label %21, label %_ZL23lean_io_result_mk_errorP11lean_object.exit

21:                                               ; preds = %17
  tail call void @lean_internal_panic_out_of_memory() #10
  unreachable

22:                                               ; preds = %7
  tail call void @lean_inc_heartbeat()
  %23 = tail call noalias ptr @mi_malloc_small(i64 noundef 24) #8
  %24 = icmp eq ptr %23, null
  br i1 %24, label %25, label %_ZL23lean_io_result_mk_errorP11lean_object.exit

25:                                               ; preds = %22
  tail call void @lean_internal_panic_out_of_memory() #10
  unreachable

26:                                               ; preds = %2
  tail call void @lean_inc_heartbeat()
  %27 = tail call noalias ptr @mi_malloc_small(i64 noundef 24) #8
  %28 = icmp eq ptr %27, null
  br i1 %28, label %29, label %_ZL23lean_io_result_mk_errorP11lean_object.exit

29:                                               ; preds = %26
  tail call void @lean_internal_panic_out_of_memory() #10
  unreachable

_ZL23lean_io_result_mk_errorP11lean_object.exit:  ; preds = %26, %22, %17
  %.sink17 = phi ptr [ %19, %17 ], [ %23, %22 ], [ %27, %26 ]
  %.sink14 = phi i32 [ 16908312, %17 ], [ 131096, %22 ], [ 131096, %26 ]
  %.sink = phi ptr [ %18, %17 ], [ inttoptr (i64 1 to ptr), %22 ], [ inttoptr (i64 1 to ptr), %26 ]
  %30 = getelementptr inbounds nuw i8, ptr %.sink17, i64 4
  store i32 1, ptr %.sink17, align 4, !tbaa !12
  store i32 %.sink14, ptr %30, align 4
  %31 = getelementptr inbounds nuw i8, ptr %.sink17, i64 8
  store ptr %.sink, ptr %31, align 8, !tbaa !17
  %32 = getelementptr inbounds nuw i8, ptr %.sink17, i64 16
  store ptr inttoptr (i64 1 to ptr), ptr %32, align 8, !tbaa !17
  ret ptr %.sink17
}